target datalayout = "e-m:e-p270:32:32-p271:32:32-p272:64:64-i64:64-i128:128-f80:128-n8:16:32:64-S128"
target triple = "x86_64-pc-linux-gnu"

%struct.FunctionCallInfoBaseData = type { ptr, ptr, ptr, i32, i8, i16, [0 x %struct.NullableDatum] }
%struct.NullableDatum = type { i64, i8 }
%struct.nameData = type { [64 x i8] }

; Function Attrs: nounwind uwtable
define internal zeroext i1 @RE_execute(ptr noundef %0, ptr noundef %1, i32 noundef %2, i32 noundef %3, ptr noundef %4) #0 {
  %6 = alloca ptr, align 8
  %7 = alloca ptr, align 8
  %8 = alloca i32, align 4
  %9 = alloca i32, align 4
  %10 = alloca ptr, align 8
  %11 = alloca ptr, align 8
  %12 = alloca i32, align 4
  %13 = alloca i8, align 1
  store ptr %0, ptr %6, align 8
  store ptr %1, ptr %7, align 8
  store i32 %2, ptr %8, align 4
  store i32 %3, ptr %9, align 4
  store ptr %4, ptr %10, align 8
  call void @llvm.lifetime.start.p0(i64 8, ptr %11) #8
  call void @llvm.lifetime.start.p0(i64 4, ptr %12) #8
  call void @llvm.lifetime.start.p0(i64 1, ptr %13) #8
  %14 = load i32, ptr %8, align 4
  %15 = add i32 %14, 1
  %16 = sext i32 %15 to i64
  %17 = mul i64 %16, 4
  %18 = call ptr @palloc(i64 noundef %17)
  store ptr %18, ptr %11, align 8
  %19 = load ptr, ptr %7, align 8
  %20 = load ptr, ptr %11, align 8
  %21 = load i32, ptr %8, align 4
  %22 = call i32 @pg_mb2wchar_with_len(ptr noundef %19, ptr noundef %20, i32 noundef %21)
  store i32 %22, ptr %12, align 4
  %23 = load ptr, ptr %6, align 8
  %24 = load ptr, ptr %11, align 8
  %25 = load i32, ptr %12, align 4
  %26 = load i32, ptr %9, align 4
  %27 = load ptr, ptr %10, align 8
  %28 = call zeroext i1 @RE_wchar_execute(ptr noundef %23, ptr noundef %24, i32 noundef %25, i32 noundef 0, i32 noundef %26, ptr noundef %27)
  %29 = zext i1 %28 to i8
  store i8 %29, ptr %13, align 1
  %30 = load ptr, ptr %11, align 8
  call void @pfree(ptr noundef %30)
  %31 = load i8, ptr %13, align 1, !range !6, !noundef !7
  %32 = trunc i8 %31 to i1
  call void @llvm.lifetime.end.p0(i64 1, ptr %13) #8
  call void @llvm.lifetime.end.p0(i64 4, ptr %12) #8
  call void @llvm.lifetime.end.p0(i64 8, ptr %11) #8
  ret i1 %32
}

; Function Attrs: inlinehint nounwind uwtable
define internal i64 @BoolGetDatum(i1 noundef zeroext %0) #6 {
  %2 = alloca i8, align 1
  %3 = zext i1 %0 to i8
  store i8 %3, ptr %2, align 1
  %4 = load i8, ptr %2, align 1, !range !6, !noundef !7
  %5 = trunc i8 %4 to i1
  %6 = select i1 %5, i32 1, i32 0
  %7 = sext i32 %6 to i64
  ret i64 %7
}

; Function Attrs: nounwind uwtable
define dso_local zeroext i1 @RE_compile_and_execute(ptr noundef %0, ptr noundef %1, i32 noundef %2, i32 noundef %3, i32 noundef %4, i32 noundef %5, ptr noundef %6) #0 {
  %8 = alloca ptr, align 8
  %9 = alloca ptr, align 8
  %10 = alloca i32, align 4
  %11 = alloca i32, align 4
  %12 = alloca i32, align 4
  %13 = alloca i32, align 4
  %14 = alloca ptr, align 8
  %15 = alloca ptr, align 8
  store ptr %0, ptr %8, align 8
  store ptr %1, ptr %9, align 8
  store i32 %2, ptr %10, align 4
  store i32 %3, ptr %11, align 4
  store i32 %4, ptr %12, align 4
  store i32 %5, ptr %13, align 4
  store ptr %6, ptr %14, align 8
  call void @llvm.lifetime.start.p0(i64 8, ptr %15) #8
  %16 = load i32, ptr %13, align 4
  %17 = icmp slt i32 %16, 2
  br i1 %17, label %18, label %21

18:                                               ; preds = %7
  %19 = load i32, ptr %11, align 4
  %20 = or i32 %19, 16
  store i32 %20, ptr %11, align 4
  br label %21

21:                                               ; preds = %18, %7
  %22 = load ptr, ptr %8, align 8
  %23 = load i32, ptr %11, align 4
  %24 = load i32, ptr %12, align 4
  %25 = call ptr @RE_compile_and_cache(ptr noundef %22, i32 noundef %23, i32 noundef %24)
  store ptr %25, ptr %15, align 8
  %26 = load ptr, ptr %15, align 8
  %27 = load ptr, ptr %9, align 8
  %28 = load i32, ptr %10, align 4
  %29 = load i32, ptr %13, align 4
  %30 = load ptr, ptr %14, align 8
  %31 = call zeroext i1 @RE_execute(ptr noundef %26, ptr noundef %27, i32 noundef %28, i32 noundef %29, ptr noundef %30)
  call void @llvm.lifetime.end.p0(i64 8, ptr %15) #8
  ret i1 %31
}

; Function Attrs: inlinehint nounwind uwtable
define internal ptr @DatumGetPointer(i64 noundef %0) #6 {
  %2 = alloca i64, align 8
  store i64 %0, ptr %2, align 8
  %3 = load i64, ptr %2, align 8
  %4 = inttoptr i64 %3 to ptr
  ret ptr %4
}

; Function Attrs: inlinehint nounwind uwtable
define internal ptr @DatumGetName(i64 noundef %0) #6 {
  %2 = alloca i64, align 8
  store i64 %0, ptr %2, align 8
  %3 = load i64, ptr %2, align 8
  %4 = call ptr @DatumGetPointer(i64 noundef %3)
  ret ptr %4
}

; Function Attrs: nounwind uwtable
define dso_local i64 @nameregexne(ptr noundef %0) #0 {
  %2 = alloca ptr, align 8
  %3 = alloca ptr, align 8
  %4 = alloca ptr, align 8
  store ptr %0, ptr %2, align 8
  call void @llvm.lifetime.start.p0(i64 8, ptr %3) #8
  %5 = load ptr, ptr %2, align 8
  %6 = getelementptr inbounds nuw %struct.FunctionCallInfoBaseData, ptr %5, i32 0, i32 6
  %7 = getelementptr inbounds [0 x %struct.NullableDatum], ptr %6, i64 0, i64 0
  %8 = getelementptr inbounds nuw %struct.NullableDatum, ptr %7, i32 0, i32 0
  %9 = load i64, ptr %8, align 8
  %10 = call ptr @DatumGetName(i64 noundef %9)
  store ptr %10, ptr %3, align 8
  call void @llvm.lifetime.start.p0(i64 8, ptr %4) #8
  %11 = load ptr, ptr %2, align 8
  %12 = getelementptr inbounds nuw %struct.FunctionCallInfoBaseData, ptr %11, i32 0, i32 6
  %13 = getelementptr inbounds [0 x %struct.NullableDatum], ptr %12, i64 0, i64 1
  %14 = getelementptr inbounds nuw %struct.NullableDatum, ptr %13, i32 0, i32 0
  %15 = load i64, ptr %14, align 8
  %16 = call ptr @DatumGetPointer(i64 noundef %15)
  %17 = call ptr @pg_detoast_datum_packed(ptr noundef %16)
  store ptr %17, ptr %4, align 8
  %18 = load ptr, ptr %4, align 8
  %19 = load ptr, ptr %3, align 8
  %20 = getelementptr inbounds nuw %struct.nameData, ptr %19, i32 0, i32 0
  %21 = getelementptr inbounds [64 x i8], ptr %20, i64 0, i64 0
  %22 = load ptr, ptr %3, align 8
  %23 = getelementptr inbounds nuw %struct.nameData, ptr %22, i32 0, i32 0
  %24 = getelementptr inbounds [64 x i8], ptr %23, i64 0, i64 0
  %25 = call i64 @strlen(ptr noundef %24) #9
  %26 = trunc i64 %25 to i32
  %27 = load ptr, ptr %2, align 8
  %28 = getelementptr inbounds nuw %struct.FunctionCallInfoBaseData, ptr %27, i32 0, i32 3
  %29 = load i32, ptr %28, align 8
  %30 = call zeroext i1 @RE_compile_and_execute(ptr noundef %18, ptr noundef %21, i32 noundef %26, i32 noundef 3, i32 noundef %29, i32 noundef 0, ptr noundef null)
  %31 = xor i1 %30, true
  %32 = call i64 @BoolGetDatum(i1 noundef zeroext %31)
  call void @llvm.lifetime.end.p0(i64 8, ptr %4) #8
  call void @llvm.lifetime.end.p0(i64 8, ptr %3) #8
  ret i64 %32
}